; Function Attrs: nounwind uwtable
define dso_local void @job_update_io_fnames(ptr noundef %0, ptr noundef readonly captures(none) %1) local_unnamed_addr #0 {
  %3 = getelementptr inbounds nuw i8, ptr %1, i64 800
  %4 = load ptr, ptr %3, align 8
  %5 = getelementptr inbounds nuw i8, ptr %1, i64 120
  %6 = load i32, ptr %5, align 8
  %7 = tail call ptr @fname_create(ptr noundef %0, ptr noundef %4, i32 noundef %6) #15
  %8 = getelementptr inbounds nuw i8, ptr %0, i64 232
  store ptr %7, ptr %8, align 8
  %9 = getelementptr inbounds nuw i8, ptr %1, i64 808
  %10 = load ptr, ptr %9, align 8
  %11 = load i32, ptr %5, align 8
  %12 = tail call ptr @fname_create(ptr noundef %0, ptr noundef %10, i32 noundef %11) #15
  %13 = getelementptr inbounds nuw i8, ptr %0, i64 240
  store ptr %12, ptr %13, align 8
  %14 = getelementptr inbounds nuw i8, ptr %1, i64 792
  %15 = load ptr, ptr %14, align 8
  %.not = icmp eq ptr %15, null
  br i1 %.not, label %19, label %16

16:                                               ; preds = %2
  %17 = load i32, ptr %5, align 8
  %18 = tail call ptr @fname_create(ptr noundef nonnull %0, ptr noundef nonnull %15, i32 noundef %17) #15
  br label %19

19:                                               ; preds = %2, %16
  %20 = phi ptr [ %18, %16 ], [ %12, %2 ]
  %21 = getelementptr inbounds nuw i8, ptr %0, i64 248
  store ptr %20, ptr %21, align 8
  ret void
}